; Function Attrs: nounwind uwtable
define nonnull ptr @l___private_Lake_Config_Glob_0__Lake_decEqGlob____x40_Lake_Config_Glob___hyg_197____boxed(ptr noundef %0, ptr noundef %1) local_unnamed_addr #0 {
  %3 = ptrtoint ptr %0 to i64
  %4 = and i64 %3, 1
  %.not.i.i = icmp eq i64 %4, 0
  br i1 %.not.i.i, label %8, label %5

5:                                                ; preds = %2
  %6 = lshr i64 %3, 1
  %7 = trunc i64 %6 to i32
  br label %lean_obj_tag.exit.i

8:                                                ; preds = %2
  %9 = getelementptr i8, ptr %0, i64 4
  %.val.i.i = load i32, ptr %9, align 4
  %10 = lshr i32 %.val.i.i, 24
  br label %lean_obj_tag.exit.i

lean_obj_tag.exit.i:                              ; preds = %8, %5
  %.0.i.i = phi i32 [ %7, %5 ], [ %10, %8 ]
  %11 = ptrtoint ptr %1 to i64
  %12 = and i64 %11, 1
  %.not.i30.i = icmp eq i64 %12, 0
  switch i32 %.0.i.i, label %29 [
    i32 0, label %13
    i32 1, label %21
  ]

13:                                               ; preds = %lean_obj_tag.exit.i
  br i1 %.not.i30.i, label %17, label %14

14:                                               ; preds = %13
  %15 = lshr i64 %11, 1
  %16 = trunc i64 %15 to i32
  br label %lean_obj_tag.exit25.i

17:                                               ; preds = %13
  %18 = getelementptr i8, ptr %1, i64 4
  %.val.i24.i = load i32, ptr %18, align 4
  %19 = lshr i32 %.val.i24.i, 24
  br label %lean_obj_tag.exit25.i

lean_obj_tag.exit25.i:                            ; preds = %17, %14
  %.0.i23.i = phi i32 [ %16, %14 ], [ %19, %17 ]
  %20 = icmp eq i32 %.0.i23.i, 0
  br i1 %20, label %.sink.split.i, label %l___private_Lake_Config_Glob_0__Lake_decEqGlob____x40_Lake_Config_Glob___hyg_197_.exit

21:                                               ; preds = %lean_obj_tag.exit.i
  br i1 %.not.i30.i, label %25, label %22

22:                                               ; preds = %21
  %23 = lshr i64 %11, 1
  %24 = trunc i64 %23 to i32
  br label %lean_obj_tag.exit29.i

25:                                               ; preds = %21
  %26 = getelementptr i8, ptr %1, i64 4
  %.val.i28.i = load i32, ptr %26, align 4
  %27 = lshr i32 %.val.i28.i, 24
  br label %lean_obj_tag.exit29.i

lean_obj_tag.exit29.i:                            ; preds = %25, %22
  %.0.i27.i = phi i32 [ %24, %22 ], [ %27, %25 ]
  %28 = icmp eq i32 %.0.i27.i, 1
  br i1 %28, label %.sink.split.i, label %l___private_Lake_Config_Glob_0__Lake_decEqGlob____x40_Lake_Config_Glob___hyg_197_.exit

29:                                               ; preds = %lean_obj_tag.exit.i
  br i1 %.not.i30.i, label %33, label %30

30:                                               ; preds = %29
  %31 = lshr i64 %11, 1
  %32 = trunc i64 %31 to i32
  br label %lean_obj_tag.exit33.i

33:                                               ; preds = %29
  %34 = getelementptr i8, ptr %1, i64 4
  %.val.i32.i = load i32, ptr %34, align 4
  %35 = lshr i32 %.val.i32.i, 24
  br label %lean_obj_tag.exit33.i

lean_obj_tag.exit33.i:                            ; preds = %33, %30
  %.0.i31.i = phi i32 [ %32, %30 ], [ %35, %33 ]
  %36 = icmp eq i32 %.0.i31.i, 2
  br i1 %36, label %.sink.split.i, label %l___private_Lake_Config_Glob_0__Lake_decEqGlob____x40_Lake_Config_Glob___hyg_197_.exit

.sink.split.i:                                    ; preds = %lean_obj_tag.exit33.i, %lean_obj_tag.exit29.i, %lean_obj_tag.exit25.i
  %37 = getelementptr inbounds nuw i8, ptr %0, i64 8
  %38 = load ptr, ptr %37, align 8, !tbaa !4
  %39 = getelementptr inbounds nuw i8, ptr %1, i64 8
  %40 = load ptr, ptr %39, align 8, !tbaa !4
  %41 = tail call zeroext i8 @lean_name_eq(ptr noundef %38, ptr noundef %40) #4
  %42 = zext i8 %41 to i64
  %43 = shl nuw nsw i64 %42, 1
  %44 = or disjoint i64 %43, 1
  br label %l___private_Lake_Config_Glob_0__Lake_decEqGlob____x40_Lake_Config_Glob___hyg_197_.exit

l___private_Lake_Config_Glob_0__Lake_decEqGlob____x40_Lake_Config_Glob___hyg_197_.exit: ; preds = %lean_obj_tag.exit25.i, %lean_obj_tag.exit29.i, %lean_obj_tag.exit33.i, %.sink.split.i
  %.0.i = phi i64 [ 1, %lean_obj_tag.exit25.i ], [ 1, %lean_obj_tag.exit29.i ], [ 1, %lean_obj_tag.exit33.i ], [ %44, %.sink.split.i ]
  br i1 %.not.i30.i, label %45, label %lean_dec.exit5

45:                                               ; preds = %l___private_Lake_Config_Glob_0__Lake_decEqGlob____x40_Lake_Config_Glob___hyg_197_.exit
  %46 = load i32, ptr %1, align 4, !tbaa !8
  %47 = icmp sgt i32 %46, 1
  br i1 %47, label %48, label %50, !prof !11

48:                                               ; preds = %45
  %49 = add nsw i32 %46, -1
  store i32 %49, ptr %1, align 4, !tbaa !8
  br label %lean_dec.exit5

50:                                               ; preds = %45
  %.not.i = icmp eq i32 %46, 0
  br i1 %.not.i, label %lean_dec.exit5, label %51

51:                                               ; preds = %50
  tail call void @lean_dec_ref_cold(ptr noundef nonnull %1) #4
  br label %lean_dec.exit5

lean_dec.exit5:                                   ; preds = %51, %50, %48, %l___private_Lake_Config_Glob_0__Lake_decEqGlob____x40_Lake_Config_Glob___hyg_197_.exit
  br i1 %.not.i.i, label %52, label %lean_dec.exit

52:                                               ; preds = %lean_dec.exit5
  %53 = load i32, ptr %0, align 4, !tbaa !8
  %54 = icmp sgt i32 %53, 1
  br i1 %54, label %55, label %57, !prof !11

55:                                               ; preds = %52
  %56 = add nsw i32 %53, -1
  store i32 %56, ptr %0, align 4, !tbaa !8
  br label %lean_dec.exit

57:                                               ; preds = %52
  %.not.i6 = icmp eq i32 %53, 0
  br i1 %.not.i6, label %lean_dec.exit, label %58

58:                                               ; preds = %57
  tail call void @lean_dec_ref_cold(ptr noundef nonnull %0) #4
  br label %lean_dec.exit

lean_dec.exit:                                    ; preds = %58, %57, %55, %lean_dec.exit5
  %59 = inttoptr i64 %.0.i to ptr
  ret ptr %59
}